; Function Attrs: noreturn nounwind sspstrong uwtable
define dso_local noundef i64 @rb_f_abort(i32 noundef %0, ptr noundef readonly captures(none) %1) local_unnamed_addr #7 {
  %3 = alloca [2 x i64], align 16
  %or.cond.not = icmp ult i32 %0, 2
  br i1 %or.cond.not, label %rb_check_arity.exit, label %4

4:                                                ; preds = %2
  tail call void @rb_error_arity(i32 noundef %0, i32 noundef 0, i32 noundef 1) #29
  unreachable

rb_check_arity.exit:                              ; preds = %2
  %5 = icmp eq i32 %0, 0
  br i1 %5, label %6, label %13

6:                                                ; preds = %rb_check_arity.exit
  %7 = tail call align 8 ptr @llvm.threadlocal.address.p0(ptr align 8 @ruby_current_ec)
  %8 = load ptr, ptr %7, align 8, !tbaa !7
  %9 = tail call i64 @rb_ec_get_errinfo(ptr noundef %8) #27
  %10 = icmp eq i64 %9, 4
  br i1 %10, label %12, label %11

11:                                               ; preds = %6
  tail call void @rb_ec_error_print(ptr noundef %8, i64 noundef %9) #27
  br label %12

12:                                               ; preds = %11, %6
  tail call void @rb_exit(i32 noundef 1) #33
  unreachable

13:                                               ; preds = %rb_check_arity.exit
  call void @llvm.lifetime.start.p0(i64 16, ptr nonnull %3) #27
  %14 = load i64, ptr %1, align 8, !tbaa !43
  store i64 %14, ptr %3, align 16, !tbaa !43
  %15 = getelementptr inbounds nuw i8, ptr %3, i64 8
  store i64 %14, ptr %15, align 8, !tbaa !43
  %16 = call i64 @rb_string_value(ptr noundef nonnull %3) #27
  %17 = call i64 @rb_ractor_stderr() #27
  %18 = call i64 @rb_io_puts(i32 noundef 1, ptr noundef nonnull %3, i64 noundef %17) #27
  store i64 3, ptr %3, align 16, !tbaa !43
  %19 = load i64, ptr @rb_eSystemExit, align 8, !tbaa !43
  %20 = call i64 @rb_class_new_instance(i32 noundef 2, ptr noundef nonnull %3, i64 noundef %19) #27
  call void @rb_exc_raise(i64 noundef %20) #29
  unreachable
}